
bootloader.elf:     file format elf32-littlearm


Disassembly of section .text:

08000000 <vector_table>:
 8000000:	20018000 	andcs	r8, r1, r0
 8000004:	080001c5 	stmdaeq	r0, {r0, r2, r6, r7, r8}
 8000008:	080001c3 	stmdaeq	r0, {r0, r1, r6, r7, r8}
 800000c:	080001c1 	stmdaeq	r0, {r0, r6, r7, r8}
 8000010:	080001c1 	stmdaeq	r0, {r0, r6, r7, r8}
 8000014:	080001c1 	stmdaeq	r0, {r0, r6, r7, r8}
 8000018:	080001c1 	stmdaeq	r0, {r0, r6, r7, r8}
	...
 800002c:	080001c3 	stmdaeq	r0, {r0, r1, r6, r7, r8}
 8000030:	080001c3 	stmdaeq	r0, {r0, r1, r6, r7, r8}
 8000034:	00000000 	andeq	r0, r0, r0
 8000038:	080001c3 	stmdaeq	r0, {r0, r1, r6, r7, r8}
 800003c:	080001c3 	stmdaeq	r0, {r0, r1, r6, r7, r8}
 8000040:	080001c1 	stmdaeq	r0, {r0, r6, r7, r8}
 8000044:	080001c1 	stmdaeq	r0, {r0, r6, r7, r8}
 8000048:	080001c1 	stmdaeq	r0, {r0, r6, r7, r8}
 800004c:	080001c1 	stmdaeq	r0, {r0, r6, r7, r8}
 8000050:	080001c1 	stmdaeq	r0, {r0, r6, r7, r8}
 8000054:	080001c1 	stmdaeq	r0, {r0, r6, r7, r8}
 8000058:	080001c1 	stmdaeq	r0, {r0, r6, r7, r8}
 800005c:	080001c1 	stmdaeq	r0, {r0, r6, r7, r8}
 8000060:	080001c1 	stmdaeq	r0, {r0, r6, r7, r8}
 8000064:	080001c1 	stmdaeq	r0, {r0, r6, r7, r8}
 8000068:	080001c1 	stmdaeq	r0, {r0, r6, r7, r8}
 800006c:	080001c1 	stmdaeq	r0, {r0, r6, r7, r8}
 8000070:	080001c1 	stmdaeq	r0, {r0, r6, r7, r8}
 8000074:	080001c1 	stmdaeq	r0, {r0, r6, r7, r8}
 8000078:	080001c1 	stmdaeq	r0, {r0, r6, r7, r8}
 800007c:	080001c1 	stmdaeq	r0, {r0, r6, r7, r8}
 8000080:	080001c1 	stmdaeq	r0, {r0, r6, r7, r8}
 8000084:	080001c1 	stmdaeq	r0, {r0, r6, r7, r8}
 8000088:	080001c1 	stmdaeq	r0, {r0, r6, r7, r8}
 800008c:	080001c1 	stmdaeq	r0, {r0, r6, r7, r8}
 8000090:	080001c1 	stmdaeq	r0, {r0, r6, r7, r8}
 8000094:	080001c1 	stmdaeq	r0, {r0, r6, r7, r8}
 8000098:	080001c1 	stmdaeq	r0, {r0, r6, r7, r8}
 800009c:	080001c1 	stmdaeq	r0, {r0, r6, r7, r8}
 80000a0:	080001c1 	stmdaeq	r0, {r0, r6, r7, r8}
 80000a4:	080001c1 	stmdaeq	r0, {r0, r6, r7, r8}
 80000a8:	080001c1 	stmdaeq	r0, {r0, r6, r7, r8}
 80000ac:	080001c1 	stmdaeq	r0, {r0, r6, r7, r8}
 80000b0:	080001c1 	stmdaeq	r0, {r0, r6, r7, r8}
 80000b4:	080001c1 	stmdaeq	r0, {r0, r6, r7, r8}
 80000b8:	080001c1 	stmdaeq	r0, {r0, r6, r7, r8}
 80000bc:	080001c1 	stmdaeq	r0, {r0, r6, r7, r8}
 80000c0:	080001c1 	stmdaeq	r0, {r0, r6, r7, r8}
 80000c4:	080001c1 	stmdaeq	r0, {r0, r6, r7, r8}
 80000c8:	080001c1 	stmdaeq	r0, {r0, r6, r7, r8}
 80000cc:	080001c1 	stmdaeq	r0, {r0, r6, r7, r8}
 80000d0:	080001c1 	stmdaeq	r0, {r0, r6, r7, r8}
 80000d4:	080001c1 	stmdaeq	r0, {r0, r6, r7, r8}
 80000d8:	080001c1 	stmdaeq	r0, {r0, r6, r7, r8}
 80000dc:	080001c1 	stmdaeq	r0, {r0, r6, r7, r8}
 80000e0:	080001c1 	stmdaeq	r0, {r0, r6, r7, r8}
 80000e4:	080001c1 	stmdaeq	r0, {r0, r6, r7, r8}
 80000e8:	080001c1 	stmdaeq	r0, {r0, r6, r7, r8}
 80000ec:	080001c1 	stmdaeq	r0, {r0, r6, r7, r8}
 80000f0:	080001c1 	stmdaeq	r0, {r0, r6, r7, r8}
 80000f4:	080001c1 	stmdaeq	r0, {r0, r6, r7, r8}
 80000f8:	080001c1 	stmdaeq	r0, {r0, r6, r7, r8}
 80000fc:	080001c1 	stmdaeq	r0, {r0, r6, r7, r8}
 8000100:	080001c1 	stmdaeq	r0, {r0, r6, r7, r8}
 8000104:	080001c1 	stmdaeq	r0, {r0, r6, r7, r8}
 8000108:	080001c1 	stmdaeq	r0, {r0, r6, r7, r8}
 800010c:	080001c1 	stmdaeq	r0, {r0, r6, r7, r8}
 8000110:	080001c1 	stmdaeq	r0, {r0, r6, r7, r8}
 8000114:	080001c1 	stmdaeq	r0, {r0, r6, r7, r8}
 8000118:	080001c1 	stmdaeq	r0, {r0, r6, r7, r8}
 800011c:	080001c1 	stmdaeq	r0, {r0, r6, r7, r8}
 8000120:	080001c1 	stmdaeq	r0, {r0, r6, r7, r8}
 8000124:	080001c1 	stmdaeq	r0, {r0, r6, r7, r8}
 8000128:	080001c1 	stmdaeq	r0, {r0, r6, r7, r8}
 800012c:	080001c1 	stmdaeq	r0, {r0, r6, r7, r8}
 8000130:	080001c1 	stmdaeq	r0, {r0, r6, r7, r8}
 8000134:	080001c1 	stmdaeq	r0, {r0, r6, r7, r8}
 8000138:	080001c1 	stmdaeq	r0, {r0, r6, r7, r8}
 800013c:	080001c1 	stmdaeq	r0, {r0, r6, r7, r8}
 8000140:	080001c1 	stmdaeq	r0, {r0, r6, r7, r8}
 8000144:	080001c1 	stmdaeq	r0, {r0, r6, r7, r8}
 8000148:	080001c1 	stmdaeq	r0, {r0, r6, r7, r8}
 800014c:	080001c1 	stmdaeq	r0, {r0, r6, r7, r8}
 8000150:	080001c1 	stmdaeq	r0, {r0, r6, r7, r8}
 8000154:	080001c1 	stmdaeq	r0, {r0, r6, r7, r8}
 8000158:	080001c1 	stmdaeq	r0, {r0, r6, r7, r8}
 800015c:	080001c1 	stmdaeq	r0, {r0, r6, r7, r8}
 8000160:	080001c1 	stmdaeq	r0, {r0, r6, r7, r8}
 8000164:	080001c1 	stmdaeq	r0, {r0, r6, r7, r8}
 8000168:	080001c1 	stmdaeq	r0, {r0, r6, r7, r8}
 800016c:	080001c1 	stmdaeq	r0, {r0, r6, r7, r8}
 8000170:	080001c1 	stmdaeq	r0, {r0, r6, r7, r8}
 8000174:	080001c1 	stmdaeq	r0, {r0, r6, r7, r8}
 8000178:	080001c1 	stmdaeq	r0, {r0, r6, r7, r8}
 800017c:	080001c1 	stmdaeq	r0, {r0, r6, r7, r8}
 8000180:	080001c1 	stmdaeq	r0, {r0, r6, r7, r8}
 8000184:	080001c1 	stmdaeq	r0, {r0, r6, r7, r8}
 8000188:	080001c1 	stmdaeq	r0, {r0, r6, r7, r8}
 800018c:	080001c1 	stmdaeq	r0, {r0, r6, r7, r8}
 8000190:	080001c1 	stmdaeq	r0, {r0, r6, r7, r8}
 8000194:	080001c1 	stmdaeq	r0, {r0, r6, r7, r8}
 8000198:	080001c1 	stmdaeq	r0, {r0, r6, r7, r8}
 800019c:	080001c1 	stmdaeq	r0, {r0, r6, r7, r8}
 80001a0:	080001c1 	stmdaeq	r0, {r0, r6, r7, r8}
 80001a4:	080001c1 	stmdaeq	r0, {r0, r6, r7, r8}
 80001a8:	080001c1 	stmdaeq	r0, {r0, r6, r7, r8}
 80001ac:	00000000 	andeq	r0, r0, r0

080001b0 <main>:
 80001b0:	b508      	push	{r3, lr}
 80001b2:	4b02      	ldr	r3, [pc, #8]	; (80001bc <main+0xc>)
 80001b4:	685b      	ldr	r3, [r3, #4]
 80001b6:	4798      	blx	r3
 80001b8:	2000      	movs	r0, #0
 80001ba:	bd08      	pop	{r3, pc}
 80001bc:	08008000 	stmdaeq	r0, {pc}

080001c0 <blocking_handler>:
 80001c0:	e7fe      	b.n	80001c0 <blocking_handler>

080001c2 <null_handler>:
 80001c2:	4770      	bx	lr

080001c4 <reset_handler>:
 80001c4:	b538      	push	{r3, r4, r5, lr}
 80001c6:	4a1d      	ldr	r2, [pc, #116]	; (800023c <reset_handler+0x78>)
 80001c8:	4b1d      	ldr	r3, [pc, #116]	; (8000240 <reset_handler+0x7c>)
 80001ca:	491e      	ldr	r1, [pc, #120]	; (8000244 <reset_handler+0x80>)
 80001cc:	428b      	cmp	r3, r1
 80001ce:	d320      	bcc.n	8000212 <reset_handler+0x4e>
 80001d0:	4a1d      	ldr	r2, [pc, #116]	; (8000248 <reset_handler+0x84>)
 80001d2:	2100      	movs	r1, #0
 80001d4:	4293      	cmp	r3, r2
 80001d6:	d321      	bcc.n	800021c <reset_handler+0x58>
 80001d8:	f04f 23e0 	mov.w	r3, #3758153728	; 0xe000e000
 80001dc:	4c1b      	ldr	r4, [pc, #108]	; (800024c <reset_handler+0x88>)
 80001de:	f8d3 2d14 	ldr.w	r2, [r3, #3348]	; 0xd14
 80001e2:	4d1b      	ldr	r5, [pc, #108]	; (8000250 <reset_handler+0x8c>)
 80001e4:	f442 7200 	orr.w	r2, r2, #512	; 0x200
 80001e8:	f8c3 2d14 	str.w	r2, [r3, #3348]	; 0xd14
 80001ec:	f8d3 2d88 	ldr.w	r2, [r3, #3464]	; 0xd88
 80001f0:	f442 0270 	orr.w	r2, r2, #15728640	; 0xf00000
 80001f4:	f8c3 2d88 	str.w	r2, [r3, #3464]	; 0xd88
 80001f8:	42ac      	cmp	r4, r5
 80001fa:	d312      	bcc.n	8000222 <reset_handler+0x5e>
 80001fc:	4c15      	ldr	r4, [pc, #84]	; (8000254 <reset_handler+0x90>)
 80001fe:	4d16      	ldr	r5, [pc, #88]	; (8000258 <reset_handler+0x94>)
 8000200:	42ac      	cmp	r4, r5
 8000202:	d312      	bcc.n	800022a <reset_handler+0x66>
 8000204:	f7ff ffd4 	bl	80001b0 <main>
 8000208:	4c14      	ldr	r4, [pc, #80]	; (800025c <reset_handler+0x98>)
 800020a:	4d15      	ldr	r5, [pc, #84]	; (8000260 <reset_handler+0x9c>)
 800020c:	42ac      	cmp	r4, r5
 800020e:	d310      	bcc.n	8000232 <reset_handler+0x6e>
 8000210:	bd38      	pop	{r3, r4, r5, pc}
 8000212:	f852 0b04 	ldr.w	r0, [r2], #4
 8000216:	f843 0b04 	str.w	r0, [r3], #4
 800021a:	e7d7      	b.n	80001cc <reset_handler+0x8>
 800021c:	f843 1b04 	str.w	r1, [r3], #4
 8000220:	e7d8      	b.n	80001d4 <reset_handler+0x10>
 8000222:	f854 3b04 	ldr.w	r3, [r4], #4
 8000226:	4798      	blx	r3
 8000228:	e7e6      	b.n	80001f8 <reset_handler+0x34>
 800022a:	f854 3b04 	ldr.w	r3, [r4], #4
 800022e:	4798      	blx	r3
 8000230:	e7e6      	b.n	8000200 <reset_handler+0x3c>
 8000232:	f854 3b04 	ldr.w	r3, [r4], #4
 8000236:	4798      	blx	r3
 8000238:	e7e8      	b.n	800020c <reset_handler+0x48>
 800023a:	bf00      	nop
 800023c:	08000264 	stmdaeq	r0, {r2, r5, r6, r9}
 8000240:	20000000 	andcs	r0, r0, r0
 8000244:	20000000 	andcs	r0, r0, r0
 8000248:	20000000 	andcs	r0, r0, r0
 800024c:	08000264 	stmdaeq	r0, {r2, r5, r6, r9}
 8000250:	08000264 	stmdaeq	r0, {r2, r5, r6, r9}
 8000254:	08000264 	stmdaeq	r0, {r2, r5, r6, r9}
 8000258:	08000264 	stmdaeq	r0, {r2, r5, r6, r9}
 800025c:	08000264 	stmdaeq	r0, {r2, r5, r6, r9}
 8000260:	08000264 	stmdaeq	r0, {r2, r5, r6, r9}
